; Function Attrs: nounwind uwtable
define ptr @l_Array_get_x21___rarg___boxed(ptr noundef %0, ptr noundef %1, ptr noundef %2) #0 {
  %4 = getelementptr i8, ptr %1, i64 8
  %.val.i = load i64, ptr %4, align 8, !tbaa !14
  %5 = shl i64 %.val.i, 1
  %6 = or disjoint i64 %5, 1
  %7 = inttoptr i64 %6 to ptr
  %8 = ptrtoint ptr %2 to i64
  %9 = and i64 %8, 1
  %.not.i13 = icmp eq i64 %9, 0
  br i1 %.not.i13, label %lean_dec.exit.i, label %10, !prof !16

10:                                               ; preds = %3
  %11 = icmp ult ptr %2, %7
  br i1 %11, label %22, label %13

lean_dec.exit.i:                                  ; preds = %3
  %12 = tail call zeroext i1 @lean_nat_big_lt(ptr noundef %2, ptr noundef nonnull %7) #3
  br i1 %12, label %22, label %13

13:                                               ; preds = %lean_dec.exit.i, %10
  %14 = ptrtoint ptr %0 to i64
  %15 = and i64 %14, 1
  %.not11.i = icmp eq i64 %15, 0
  br i1 %.not11.i, label %16, label %l_Array_get_x21___rarg.exit

16:                                               ; preds = %13
  %.val.i.i = load i32, ptr %0, align 4, !tbaa !4
  %17 = icmp sgt i32 %.val.i.i, 0
  br i1 %17, label %18, label %20, !prof !9

18:                                               ; preds = %16
  %19 = add nuw i32 %.val.i.i, 1
  store i32 %19, ptr %0, align 4, !tbaa !4
  br label %l_Array_get_x21___rarg.exit

20:                                               ; preds = %16
  %.not.i10.i = icmp eq i32 %.val.i.i, 0
  br i1 %.not.i10.i, label %l_Array_get_x21___rarg.exit, label %21

21:                                               ; preds = %20
  tail call void @lean_inc_ref_cold(ptr noundef nonnull %0) #3
  br label %l_Array_get_x21___rarg.exit

22:                                               ; preds = %lean_dec.exit.i, %10
  %23 = lshr i64 %8, 1
  %24 = getelementptr inbounds nuw i8, ptr %1, i64 24
  %25 = getelementptr inbounds nuw [0 x ptr], ptr %24, i64 0, i64 %23
  %26 = load ptr, ptr %25, align 8, !tbaa !10
  %27 = ptrtoint ptr %26 to i64
  %28 = and i64 %27, 1
  %.not.i.i.i = icmp eq i64 %28, 0
  br i1 %.not.i.i.i, label %29, label %l_Array_get_x21___rarg.exit

29:                                               ; preds = %22
  %.val.i.i.i.i = load i32, ptr %26, align 4, !tbaa !4
  %30 = icmp sgt i32 %.val.i.i.i.i, 0
  br i1 %30, label %31, label %33, !prof !9

31:                                               ; preds = %29
  %32 = add nuw i32 %.val.i.i.i.i, 1
  store i32 %32, ptr %26, align 4, !tbaa !4
  br label %l_Array_get_x21___rarg.exit

33:                                               ; preds = %29
  %.not.i.i.i.i = icmp eq i32 %.val.i.i.i.i, 0
  br i1 %.not.i.i.i.i, label %l_Array_get_x21___rarg.exit, label %34

34:                                               ; preds = %33
  tail call void @lean_inc_ref_cold(ptr noundef nonnull %26) #3
  br label %l_Array_get_x21___rarg.exit

l_Array_get_x21___rarg.exit:                      ; preds = %13, %18, %20, %21, %22, %31, %33, %34
  %.0.i = phi ptr [ %0, %21 ], [ %0, %20 ], [ %0, %18 ], [ %0, %13 ], [ %26, %22 ], [ %26, %31 ], [ %26, %33 ], [ %26, %34 ]
  br i1 %.not.i13, label %35, label %lean_dec.exit8

35:                                               ; preds = %l_Array_get_x21___rarg.exit
  %36 = load i32, ptr %2, align 4, !tbaa !4
  %37 = icmp sgt i32 %36, 1
  br i1 %37, label %38, label %40, !prof !9

38:                                               ; preds = %35
  %39 = add nsw i32 %36, -1
  store i32 %39, ptr %2, align 4, !tbaa !4
  br label %lean_dec.exit8

40:                                               ; preds = %35
  %.not.i = icmp eq i32 %36, 0
  br i1 %.not.i, label %lean_dec.exit8, label %41

41:                                               ; preds = %40
  tail call void @lean_dec_ref_cold(ptr noundef nonnull %2) #3
  br label %lean_dec.exit8

lean_dec.exit8:                                   ; preds = %41, %40, %38, %l_Array_get_x21___rarg.exit
  %42 = ptrtoint ptr %1 to i64
  %43 = and i64 %42, 1
  %.not14 = icmp eq i64 %43, 0
  br i1 %.not14, label %44, label %lean_dec.exit7

44:                                               ; preds = %lean_dec.exit8
  %45 = load i32, ptr %1, align 4, !tbaa !4
  %46 = icmp sgt i32 %45, 1
  br i1 %46, label %47, label %49, !prof !9

47:                                               ; preds = %44
  %48 = add nsw i32 %45, -1
  store i32 %48, ptr %1, align 4, !tbaa !4
  br label %lean_dec.exit7

49:                                               ; preds = %44
  %.not.i9 = icmp eq i32 %45, 0
  br i1 %.not.i9, label %lean_dec.exit7, label %50

50:                                               ; preds = %49
  tail call void @lean_dec_ref_cold(ptr noundef nonnull %1) #3
  br label %lean_dec.exit7

lean_dec.exit7:                                   ; preds = %50, %49, %47, %lean_dec.exit8
  %51 = ptrtoint ptr %0 to i64
  %52 = and i64 %51, 1
  %.not15 = icmp eq i64 %52, 0
  br i1 %.not15, label %53, label %lean_dec.exit

53:                                               ; preds = %lean_dec.exit7
  %54 = load i32, ptr %0, align 4, !tbaa !4
  %55 = icmp sgt i32 %54, 1
  br i1 %55, label %56, label %58, !prof !9

56:                                               ; preds = %53
  %57 = add nsw i32 %54, -1
  store i32 %57, ptr %0, align 4, !tbaa !4
  br label %lean_dec.exit

58:                                               ; preds = %53
  %.not.i11 = icmp eq i32 %54, 0
  br i1 %.not.i11, label %lean_dec.exit, label %59

59:                                               ; preds = %58
  tail call void @lean_dec_ref_cold(ptr noundef nonnull %0) #3
  br label %lean_dec.exit

lean_dec.exit:                                    ; preds = %59, %58, %56, %lean_dec.exit7
  ret ptr %.0.i
}